Certificate:
    Data:
        Version: 3 (0x2)
        Serial Number: 2 (0x2)
        Signature Algorithm: sha1WithRSAEncryption
        Issuer: DC=org, DC=simple, O=Simple Inc, OU=Simple Signing CA, CN=Simple Signing CA
        Validity
            Not Before: Dec  4 21:31:01 2020 GMT
            Not After : Dec  4 21:31:01 2022 GMT
        Subject: DC=org, DC=simple, O=Simple Inc, CN=www.simple.org
        Subject Public Key Info:
            Public Key Algorithm: rsaEncryption
                RSA Public-Key: (2048 bit)
                Modulus:
                    00:d0:b9:8f:a9:0f:75:84:21:00:64:61:5a:42:58:
                    95:e1:cf:99:39:00:f1:77:48:f2:ac:d6:0e:c6:3c:
                    cc:ad:bb:ac:27:96:67:85:60:ae:df:c4:b3:08:1c:
                    5b:55:fd:c4:62:4c:b6:9e:b5:da:03:22:f8:d0:7b:
                    04:9d:9b:ba:ab:31:9d:1e:61:29:6b:96:54:9f:be:
                    a6:1f:0b:0a:33:69:63:7f:64:f4:c2:01:d7:6a:72:
                    0a:9d:41:af:99:79:19:c1:db:cd:6e:49:79:49:cd:
                    ef:1f:d3:69:e1:66:8f:8c:0f:13:b8:8a:c1:61:6b:
                    48:5e:10:41:e8:8c:fc:97:ad:bd:2a:1b:2e:95:cc:
                    27:2a:8c:1c:cf:03:19:9f:fe:3e:71:e2:08:68:50:
                    39:b3:5b:6b:09:01:7a:3a:c3:da:07:0a:c7:c5:52:
                    cb:4b:a8:7d:e7:cd:02:3b:f2:56:ca:5b:4f:04:4d:
                    17:f0:da:3c:a5:06:c7:5c:e8:18:17:58:c4:85:ac:
                    f1:af:e1:87:68:3d:0b:06:b6:bd:17:6c:13:0a:63:
                    d2:f0:73:83:7b:4e:b6:2d:bb:b3:4c:cb:a5:32:87:
                    08:da:4d:c4:0c:21:11:73:ed:c6:cc:05:c0:0a:65:
                    1f:08:70:c6:b0:f1:9d:30:7a:1b:1e:f9:d3:e1:c6:
                    8c:73
                Exponent: 65537 (0x10001)
        X509v3 extensions:
            X509v3 Key Usage: critical
                Digital Signature, Key Encipherment
            X509v3 Basic Constraints: 
                CA:FALSE
            X509v3 Extended Key Usage: 
                TLS Web Server Authentication, TLS Web Client Authentication
            X509v3 Subject Key Identifier: 
                EB:CD:0C:2E:F9:01:A9:E5:E0:98:82:9A:2D:3B:FF:28:28:C5:29:DD
            X509v3 Authority Key Identifier: 
                keyid:8C:07:12:FA:7E:73:27:0A:6C:3E:00:87:94:34:03:30:B5:C7:1E:03

            X509v3 Subject Alternative Name: 
                DNS:www.simple.org
    Signature Algorithm: sha1WithRSAEncryption
         05:87:21:33:df:1a:6f:d3:6b:cd:ce:63:dd:6d:bd:f4:df:e3:
         d7:30:83:c4:8a:0b:98:6a:83:02:b6:9a:fe:b6:8f:c5:c9:6b:
         32:b3:81:46:f3:9d:b0:85:15:cc:4e:4e:d4:9f:c9:4f:ec:58:
         20:2e:36:a1:2f:82:89:46:d8:9a:08:42:17:85:a1:2a:c2:e6:
         60:28:d1:eb:07:ba:d9:4a:0c:ad:60:25:a5:2c:32:f4:86:d7:
         ef:53:e1:17:fa:44:c4:e4:b4:70:cd:65:3d:5e:25:e3:3d:8a:
         1d:dc:b5:c2:09:89:5c:33:cb:f5:56:a0:94:9e:10:b2:c6:2e:
         01:e6:d1:34:28:93:e2:42:fd:a8:f1:55:8c:f9:fe:6a:d9:1b:
         b2:3c:1a:31:47:ee:39:0b:04:46:ee:20:0a:08:87:8f:91:aa:
         ed:0e:89:61:97:ea:42:49:33:d1:fa:cf:06:75:82:6e:59:ef:
         b0:39:a5:3b:49:0e:d9:b4:43:e6:d1:92:29:db:00:61:dc:c6:
         1b:9e:38:54:f0:da:1e:a0:2c:49:3d:ef:fb:e5:2e:28:11:80:
         e7:b5:4a:ae:be:e7:9c:54:c7:6a:a0:c4:1b:81:d1:45:72:93:
         05:0a:9c:06:05:07:15:28:0d:33:0b:a1:0d:f4:a3:b6:b5:47:
         0d:80:2a:0b
-----BEGIN CERTIFICATE-----
MIID6TCCAtGgAwIBAgIBAjANBgkqhkiG9w0BAQUFADB6MRMwEQYKCZImiZPyLGQB
GRYDb3JnMRYwFAYKCZImiZPyLGQBGRYGc2ltcGxlMRMwEQYDVQQKDApTaW1wbGUg
SW5jMRowGAYDVQQLDBFTaW1wbGUgU2lnbmluZyBDQTEaMBgGA1UEAwwRU2ltcGxl
IFNpZ25pbmcgQ0EwHhcNMjAxMjA0MjEzMTAxWhcNMjIxMjA0MjEzMTAxWjBbMRMw
EQYKCZImiZPyLGQBGRYDb3JnMRYwFAYKCZImiZPyLGQBGRYGc2ltcGxlMRMwEQYD
VQQKDApTaW1wbGUgSW5jMRcwFQYDVQQDDA53d3cuc2ltcGxlLm9yZzCCASIwDQYJ
KoZIhvcNAQEBBQADggEPADCCAQoCggEBANC5j6kPdYQhAGRhWkJYleHPmTkA8XdI
8qzWDsY8zK27rCeWZ4Vgrt/EswgcW1X9xGJMtp612gMi+NB7BJ2buqsxnR5hKWuW
VJ++ph8LCjNpY39k9MIB12pyCp1Br5l5GcHbzW5JeUnN7x/TaeFmj4wPE7iKwWFr
SF4QQeiM/JetvSobLpXMJyqMHM8DGZ/+PnHiCGhQObNbawkBejrD2gcKx8VSy0uo
fefNAjvyVspbTwRNF/DaPKUGx1zoGBdYxIWs8a/hh2g9Cwa2vRdsEwpj0vBzg3tO
ti27s0zLpTKHCNpNxAwhEXPtxswFwAplHwhwxrDxnTB6Gx750+HGjHMCAwEAAaOB
mDCBlTAOBgNVHQ8BAf8EBAMCBaAwCQYDVR0TBAIwADAdBgNVHSUEFjAUBggrBgEF
BQcDAQYIKwYBBQUHAwIwHQYDVR0OBBYEFOvNDC75Aanl4JiCmi07/ygoxSndMB8G
A1UdIwQYMBaAFIwHEvp+cycKbD4Ah5Q0AzC1xx4DMBkGA1UdEQQSMBCCDnd3dy5z
aW1wbGUub3JnMA0GCSqGSIb3DQEBBQUAA4IBAQAFhyEz3xpv02vNzmPdbb303+PX
MIPEiguYaoMCtpr+to/FyWsys4FG852whRXMTk7Un8lP7FggLjahL4KJRtiaCEIX
haEqwuZgKNHrB7rZSgytYCWlLDL0htfvU+EX+kTE5LRwzWU9XiXjPYod3LXCCYlc
M8v1VqCUnhCyxi4B5tE0KJPiQv2o8VWM+f5q2RuyPBoxR+45CwRG7iAKCIePkart
Dolhl+pCSTPR+s8GdYJuWe+wOaU7SQ7ZtEPm0ZIp2wBh3MYbnjhU8NoeoCxJPe/7
5S4oEYDntUquvuecVMdqoMQbgdFFcpMFCpwGBQcVKA0zC6EN9KO2tUcNgCoL
-----END CERTIFICATE-----
