-----BEGIN ENCRYPTED PRIVATE KEY-----
MIIFHDBOBgkqhkiG9w0BBQ0wQTApBgkqhkiG9w0BBQwwHAQIzcH5UM+I/8sCAggA
MAwGCCqGSIb3DQIJBQAwFAYIKoZIhvcNAwcECCz8YnWpvq0iBIIEyG0Ieo5uf8sd
9f422hFRFGvjUBNFA8AvHk49ZR99pQYpYEt+v5MSlVvyifSqpO9krTRXv3oVIFmc
bTR9EAoiseKzMKj4xk5ciO1yIjZ8/aBlp1mAKXC8FBggn7engZ/D72p0gFYq2m9m
D3Slq1eEUCoGPf1+GmhQuI+Btomw+UcmJmnUgnjuvwFr3KdVqlguV2PQTYnCWSUp
ShfR43jbhNTKlfr08K69+MaDePhG+iH8IRcIMxQfsoy/znawvu/ESj9qBy0VDLPd
nmm/shdjZ+NpPGuZ8AezwLWXuVYXX3p1XlyuQPa6XV2NImbuVwEPBSY8wWf84W+C
h3srsEaxu9F5sdNSi7uLbNtt9qBT+yNgrZvBLWybUEC3PGYvv49uF8ESpTGJG5N2
NYN6DzLIDQmBfmYkULxuNmiYW7XRNBj+7kcg/ij3qMkXF2Kwu1EDSDXdcwQEkXzJ
IJev7RdGg4FOBqcKQuC42rN6igUQ7UwyW8hmVh4g7GgkVIeD7pRjBDkP0Azjgvhx
mID7wCfA6giF+TAN7YSZDIGJMG6iq/k3Yr5yYO/RfFoJ2oiwwHqUNVc3NhGQxWju
GERsklA2SJrwGmXrqQ9dLCVC5LtAgSfC6cHk23zweZRRY3VyFCXrRIQ20bYSJZUQ
mUvgKWk7VxJ0ArC0BT1G/2L4zBn+gSG6wJYMW9Tq2tnKgvouaJPap77u/c8HAUI5
5cvRMgHyKJKN8jKe7rSLiEFpolwzp1dsfoR1nBFBkHh0kwY/RE+dtAKofrpkecmz
wNQyaduh+SY3UmcLD7UN7/y1XecGC+sr73SVu6eT8oJtyZWyKFcK+ejp2LIC1JC/
tH3DDMHa2SQbTTzrClUdLp8K14XOMJIo7tU8qGRGFU4/XjgzM3BhWU2vwIbXzq41
iatRa5t73ZgRu9/nXqw95QFZaUCb50OORUTzgzwpd3WNpgg1DiVuKXGEdG5usHal
exm31rg02TCi13hEV+4Adnwum+960HpROp4kCUb2McSZk2z4ijHAqVFVjthFm4zB
lhLZ+1J/D5f/azRA3j2zRPvj/F38TT1i0I9Q830hVeyuvChwUi6VEo8ZPnYz06EZ
8FC88K9v52gYMWJx9dXzmvu1NnOwdC1K6yf6EXZDofI3rsnHEvrqkfcMQ/hhSDSB
OUn+RO668LYoFPkCeZ/MDlVOwDI+XnRGavqs2hUR6JQ9xWz39hSSkfxbuILEw4Vq
HLmwtG7a1804SdXWIQKOjU3ns8OK4zNuQB4BKEFKolwi9nn1Sv8uqYvZeM8AaSN8
QYB88L7CcpO19s5xyxUyMZhEprTXT8/TslabCGahMx6bVQd2pAI/6AUh/8SV1oba
eTqQTFVd33N/tdCEZNeNGND7BIIH5UGUeVLIPzMf7lKnYl+0OPG6O9QF4Ncfe7ag
r5T0G2ZOYZ4Qb0RUjaPYJSdsNRsulDz0y92AU87GVnL0sSDbDUwLF3NedCFmNEma
cCxNvxIiclOjnMw7E3za3UWNdjxqi+FUCZphUhTFmTP6/vX2g1Oc/N+nmEDus0N1
kdBxUfRPqDsm03sw3dDjzPXfXdIufRxyIRYt47xVoniBCLXJkYWH0KYGmEIXhXA8
E+9srjMu2450WZil5QLiqw==
-----END ENCRYPTED PRIVATE KEY-----
Certificate:
    Data:
        Version: 3 (0x2)
        Serial Number: 1 (0x1)
        Signature Algorithm: sha1WithRSAEncryption
        Issuer: DC=org, DC=simple, O=Simple Inc, OU=Simple Signing CA, CN=Simple Signing CA
        Validity
            Not Before: Dec  4 21:28:39 2020 GMT
            Not After : Dec  4 21:28:39 2022 GMT
        Subject: DC=org, DC=simple, O=Simple Inc, CN=Fred Flinstone
        Subject Public Key Info:
            Public Key Algorithm: rsaEncryption
                RSA Public-Key: (2048 bit)
                Modulus:
                    00:e1:af:39:a1:b4:4d:2b:e1:4f:8b:c4:a0:b0:f5:
                    f6:4e:45:b8:67:a8:f9:ed:ff:b3:71:ef:4a:18:fc:
                    72:8e:15:99:e5:83:92:07:60:b2:ff:cb:46:a7:52:
                    2c:c7:be:a9:3b:60:3c:c4:8a:8a:70:78:5d:45:96:
                    7b:3d:0c:53:cf:10:b4:19:e8:78:dd:e1:98:af:85:
                    1b:6a:5d:33:ab:ad:15:c7:92:20:ca:4b:be:70:46:
                    7d:c6:15:17:63:ce:3b:52:9a:b0:29:cb:d3:a7:a8:
                    11:bd:44:6f:74:28:9a:44:26:cf:0d:07:21:22:f0:
                    74:08:aa:75:5c:96:11:49:cb:e5:e0:ea:36:a2:a0:
                    58:e0:3c:79:19:98:f4:88:1e:fe:9e:aa:4d:3d:2e:
                    b5:7b:d5:86:9f:a0:e1:3c:c2:13:6d:9c:52:34:b8:
                    d3:fc:4c:10:2f:ef:31:a6:46:24:d2:9f:96:e8:45:
                    b8:72:53:f9:2f:d8:90:95:0c:a3:d7:71:f6:5b:a0:
                    39:e8:84:34:e0:72:9c:3d:33:f9:a6:7e:db:d8:5c:
                    75:2a:de:2c:02:aa:fb:09:25:c5:38:45:89:00:f2:
                    1c:b4:3f:ce:5a:b0:3a:66:c2:dc:1c:d0:07:0e:d3:
                    09:ed:7c:22:52:6f:67:75:86:43:02:2a:74:3a:ab:
                    ff:2d
                Exponent: 65537 (0x10001)
        X509v3 extensions:
            X509v3 Key Usage: critical
                Digital Signature, Key Encipherment
            X509v3 Basic Constraints: 
                CA:FALSE
            X509v3 Extended Key Usage: 
                E-mail Protection, TLS Web Client Authentication
            X509v3 Subject Key Identifier: 
                3C:E2:3A:67:87:E4:E3:72:DF:4F:0F:95:B5:6E:06:D2:14:2F:E9:ED
            X509v3 Authority Key Identifier: 
                keyid:8C:07:12:FA:7E:73:27:0A:6C:3E:00:87:94:34:03:30:B5:C7:1E:03

            X509v3 Subject Alternative Name: 
                email:fred@simple.org
    Signature Algorithm: sha1WithRSAEncryption
         7b:81:5c:a0:66:aa:bb:7f:d4:38:6d:87:0f:ff:bc:57:90:e6:
         15:dd:b1:86:b2:c0:c6:20:86:53:54:7d:fd:85:3f:aa:7f:76:
         38:36:34:b8:44:04:10:60:2e:b5:10:78:c2:29:94:c5:2b:96:
         e1:10:25:c9:10:0f:b1:a8:50:6c:7a:63:ec:d4:62:b3:6f:55:
         9e:2a:4c:8f:e0:1a:30:8b:aa:85:2a:d9:84:a9:a2:69:56:8e:
         b3:77:bb:3c:2f:3a:e6:73:1d:e7:f7:b6:e4:e7:11:5d:6e:ad:
         6c:00:e2:f3:60:31:4f:5f:a4:de:3f:b3:39:2d:0c:9a:50:d9:
         fd:cb:a9:d1:3f:53:0c:1f:bf:14:bd:20:e8:d1:98:04:ce:60:
         fe:f3:cd:9a:75:b0:69:05:82:3a:49:13:14:70:df:3d:6a:5c:
         a3:59:57:3a:d6:d2:21:b3:1f:81:32:af:95:51:45:2b:e7:ef:
         6d:78:ba:51:00:11:c0:b6:62:93:88:6e:92:14:69:a8:93:84:
         98:aa:3b:02:db:e4:2a:30:c7:21:45:85:06:8e:3b:2e:21:ea:
         9f:3b:80:68:3a:2c:c2:c5:a4:8b:74:5d:73:35:a5:21:c9:fc:
         5f:dc:23:92:c7:10:fb:7f:16:46:48:fc:1e:cf:54:03:d0:e4:
         34:16:80:c3
-----BEGIN CERTIFICATE-----
MIID6jCCAtKgAwIBAgIBATANBgkqhkiG9w0BAQUFADB6MRMwEQYKCZImiZPyLGQB
GRYDb3JnMRYwFAYKCZImiZPyLGQBGRYGc2ltcGxlMRMwEQYDVQQKDApTaW1wbGUg
SW5jMRowGAYDVQQLDBFTaW1wbGUgU2lnbmluZyBDQTEaMBgGA1UEAwwRU2ltcGxl
IFNpZ25pbmcgQ0EwHhcNMjAxMjA0MjEyODM5WhcNMjIxMjA0MjEyODM5WjBbMRMw
EQYKCZImiZPyLGQBGRYDb3JnMRYwFAYKCZImiZPyLGQBGRYGc2ltcGxlMRMwEQYD
VQQKDApTaW1wbGUgSW5jMRcwFQYDVQQDDA5GcmVkIEZsaW5zdG9uZTCCASIwDQYJ
KoZIhvcNAQEBBQADggEPADCCAQoCggEBAOGvOaG0TSvhT4vEoLD19k5FuGeo+e3/
s3HvShj8co4VmeWDkgdgsv/LRqdSLMe+qTtgPMSKinB4XUWWez0MU88QtBnoeN3h
mK+FG2pdM6utFceSIMpLvnBGfcYVF2POO1KasCnL06eoEb1Eb3QomkQmzw0HISLw
dAiqdVyWEUnL5eDqNqKgWOA8eRmY9Ige/p6qTT0utXvVhp+g4TzCE22cUjS40/xM
EC/vMaZGJNKfluhFuHJT+S/YkJUMo9dx9lugOeiENOBynD0z+aZ+29hcdSreLAKq
+wklxThFiQDyHLQ/zlqwOmbC3BzQBw7TCe18IlJvZ3WGQwIqdDqr/y0CAwEAAaOB
mTCBljAOBgNVHQ8BAf8EBAMCBaAwCQYDVR0TBAIwADAdBgNVHSUEFjAUBggrBgEF
BQcDBAYIKwYBBQUHAwIwHQYDVR0OBBYEFDziOmeH5ONy308PlbVuBtIUL+ntMB8G
A1UdIwQYMBaAFIwHEvp+cycKbD4Ah5Q0AzC1xx4DMBoGA1UdEQQTMBGBD2ZyZWRA
c2ltcGxlLm9yZzANBgkqhkiG9w0BAQUFAAOCAQEAe4FcoGaqu3/UOG2HD/+8V5Dm
Fd2xhrLAxiCGU1R9/YU/qn92ODY0uEQEEGAutRB4wimUxSuW4RAlyRAPsahQbHpj
7NRis29VnipMj+AaMIuqhSrZhKmiaVaOs3e7PC865nMd5/e25OcRXW6tbADi82Ax
T1+k3j+zOS0MmlDZ/cup0T9TDB+/FL0g6NGYBM5g/vPNmnWwaQWCOkkTFHDfPWpc
o1lXOtbSIbMfgTKvlVFFK+fvbXi6UQARwLZik4hukhRpqJOEmKo7AtvkKjDHIUWF
Bo47LiHqnzuAaDoswsWki3RdczWlIcn8X9wjkscQ+38WRkj8Hs9UA9DkNBaAww==
-----END CERTIFICATE-----
