Certificate:
    Data:
        Version: 3 (0x2)
        Serial Number: 2 (0x2)
        Signature Algorithm: sha1WithRSAEncryption
        Issuer: DC=org, DC=simple, O=Simple Inc, OU=Simple Root CA, CN=Simple Root CA
        Validity
            Not Before: Dec  4 21:24:41 2020 GMT
            Not After : Dec  4 21:24:41 2030 GMT
        Subject: DC=org, DC=simple, O=Simple Inc, OU=Simple Signing CA, CN=Simple Signing CA
        Subject Public Key Info:
            Public Key Algorithm: rsaEncryption
                RSA Public-Key: (2048 bit)
                Modulus:
                    00:cd:4f:49:9e:cd:37:9b:48:49:4e:63:17:74:67:
                    89:aa:e0:7b:f3:dc:af:a3:b3:ea:3e:ee:f6:c6:5b:
                    4c:eb:29:50:1f:70:00:09:88:55:5f:3e:ef:13:2c:
                    92:bc:f5:c8:98:0b:ee:54:70:ae:f8:08:34:11:27:
                    5b:f9:ec:77:43:55:92:05:df:c9:09:38:df:48:49:
                    cb:06:1a:13:39:41:7a:ed:54:dd:b1:f4:c7:be:30:
                    ee:72:ab:fe:58:52:b4:75:ae:1e:31:55:98:84:ec:
                    17:63:c2:fa:32:76:1e:64:e9:b2:8b:30:71:00:82:
                    8f:7b:71:82:bf:9c:b7:77:9a:a6:82:dc:65:bd:97:
                    0b:27:71:c7:eb:f6:5b:ae:2c:ed:f2:7c:60:02:09:
                    55:ec:f8:2c:31:bd:88:f0:d6:e4:72:ed:19:4b:13:
                    c2:c1:88:25:4e:c4:46:d6:b0:70:a2:6c:2f:43:4a:
                    87:3e:2f:dd:d3:13:cb:86:5c:5c:b1:7b:4d:95:9b:
                    1c:6e:1e:fd:0d:53:a9:20:82:42:31:1a:15:9f:bc:
                    12:66:ab:de:07:f9:1c:c3:89:93:b4:18:03:0c:28:
                    5d:03:df:9c:88:27:12:cd:d8:34:e2:25:9e:bc:04:
                    1b:33:60:54:a6:27:4d:4e:65:27:9a:93:86:21:82:
                    cd:a3
                Exponent: 65537 (0x10001)
        X509v3 extensions:
            X509v3 Key Usage: critical
                Certificate Sign, CRL Sign
            X509v3 Basic Constraints: critical
                CA:TRUE, pathlen:0
            X509v3 Subject Key Identifier: 
                8C:07:12:FA:7E:73:27:0A:6C:3E:00:87:94:34:03:30:B5:C7:1E:03
            X509v3 Authority Key Identifier: 
                keyid:B7:5C:ED:B3:AE:93:93:67:0F:83:C1:46:BF:C9:65:3D:7F:70:74:41

    Signature Algorithm: sha1WithRSAEncryption
         2a:f6:1b:55:99:6b:5b:b8:8a:98:cc:5b:79:b8:48:b3:5b:cc:
         fa:f2:f8:00:a5:6f:fb:b9:70:7c:99:3a:e5:cb:40:a6:53:b0:
         1b:aa:9e:15:92:c4:c8:bf:92:51:f1:1e:19:43:93:54:53:44:
         5f:c4:1c:97:8e:07:e7:e7:cb:35:67:58:e5:7f:13:00:da:5a:
         ae:23:38:f6:21:5b:0e:56:54:55:88:20:ed:1b:d0:8a:8e:fd:
         c5:65:bf:3a:87:33:0a:69:a9:2c:16:18:4b:8b:14:77:4a:56:
         58:c7:d3:99:b9:cd:3c:1a:f1:5e:95:57:35:90:05:1c:0f:f4:
         3d:45:4d:e5:5d:3e:4b:39:63:51:48:ba:6a:d5:45:4d:4c:cc:
         85:3f:28:50:d5:6f:7b:28:13:25:11:90:ef:9b:68:66:26:51:
         ab:d1:a0:9c:c9:2a:70:fe:5e:87:c1:fe:5d:d6:99:84:98:e7:
         55:50:24:b7:fd:69:f2:13:44:c5:ca:15:5d:d4:e1:a1:72:39:
         ba:87:9f:56:bd:10:c0:b6:2a:c9:0e:8e:cb:8b:e8:d3:41:4f:
         45:1f:2c:a8:a5:ca:4b:a0:74:c1:26:ab:d6:79:3d:46:ba:d7:
         3a:b1:85:68:fd:a2:15:01:bd:8b:7d:03:ae:ed:e5:0b:d8:45:
         22:b3:5a:76
-----BEGIN CERTIFICATE-----
MIIDzzCCAregAwIBAgIBAjANBgkqhkiG9w0BAQUFADB0MRMwEQYKCZImiZPyLGQB
GRYDb3JnMRYwFAYKCZImiZPyLGQBGRYGc2ltcGxlMRMwEQYDVQQKDApTaW1wbGUg
SW5jMRcwFQYDVQQLDA5TaW1wbGUgUm9vdCBDQTEXMBUGA1UEAwwOU2ltcGxlIFJv
b3QgQ0EwHhcNMjAxMjA0MjEyNDQxWhcNMzAxMjA0MjEyNDQxWjB6MRMwEQYKCZIm
iZPyLGQBGRYDb3JnMRYwFAYKCZImiZPyLGQBGRYGc2ltcGxlMRMwEQYDVQQKDApT
aW1wbGUgSW5jMRowGAYDVQQLDBFTaW1wbGUgU2lnbmluZyBDQTEaMBgGA1UEAwwR
U2ltcGxlIFNpZ25pbmcgQ0EwggEiMA0GCSqGSIb3DQEBAQUAA4IBDwAwggEKAoIB
AQDNT0mezTebSElOYxd0Z4mq4Hvz3K+js+o+7vbGW0zrKVAfcAAJiFVfPu8TLJK8
9ciYC+5UcK74CDQRJ1v57HdDVZIF38kJON9IScsGGhM5QXrtVN2x9Me+MO5yq/5Y
UrR1rh4xVZiE7Bdjwvoydh5k6bKLMHEAgo97cYK/nLd3mqaC3GW9lwsnccfr9luu
LO3yfGACCVXs+CwxvYjw1uRy7RlLE8LBiCVOxEbWsHCibC9DSoc+L93TE8uGXFyx
e02VmxxuHv0NU6kggkIxGhWfvBJmq94H+RzDiZO0GAMMKF0D35yIJxLN2DTiJZ68
BBszYFSmJ01OZSeak4Yhgs2jAgMBAAGjZjBkMA4GA1UdDwEB/wQEAwIBBjASBgNV
HRMBAf8ECDAGAQH/AgEAMB0GA1UdDgQWBBSMBxL6fnMnCmw+AIeUNAMwtcceAzAf
BgNVHSMEGDAWgBS3XO2zrpOTZw+DwUa/yWU9f3B0QTANBgkqhkiG9w0BAQUFAAOC
AQEAKvYbVZlrW7iKmMxbebhIs1vM+vL4AKVv+7lwfJk65ctAplOwG6qeFZLEyL+S
UfEeGUOTVFNEX8Qcl44H5+fLNWdY5X8TANpariM49iFbDlZUVYgg7RvQio79xWW/
OoczCmmpLBYYS4sUd0pWWMfTmbnNPBrxXpVXNZAFHA/0PUVN5V0+SzljUUi6atVF
TUzMhT8oUNVveygTJRGQ75toZiZRq9GgnMkqcP5eh8H+XdaZhJjnVVAkt/1p8hNE
xcoVXdThoXI5uoefVr0QwLYqyQ6Oy4vo00FPRR8sqKXKS6B0wSar1nk9RrrXOrGF
aP2iFQG9i30Dru3lC9hFIrNadg==
-----END CERTIFICATE-----
Certificate:
    Data:
        Version: 3 (0x2)
        Serial Number: 1 (0x1)
        Signature Algorithm: sha1WithRSAEncryption
        Issuer: DC=org, DC=simple, O=Simple Inc, OU=Simple Root CA, CN=Simple Root CA
        Validity
            Not Before: Dec  4 21:23:37 2020 GMT
            Not After : Dec  4 21:23:37 2030 GMT
        Subject: DC=org, DC=simple, O=Simple Inc, OU=Simple Root CA, CN=Simple Root CA
        Subject Public Key Info:
            Public Key Algorithm: rsaEncryption
                RSA Public-Key: (2048 bit)
                Modulus:
                    00:ce:bc:99:4d:ef:43:6f:5d:17:dd:12:95:d2:a5:
                    3c:14:3f:34:4e:e0:11:53:33:86:e2:07:db:57:8f:
                    ef:1e:b9:91:59:61:5a:6e:1c:5e:93:ea:75:62:55:
                    dc:ae:cc:0a:84:30:66:ed:42:84:c3:cc:e4:5c:a1:
                    52:86:22:51:00:21:11:e0:5c:b0:dd:53:2e:f3:fa:
                    42:12:c4:67:bd:5e:46:8b:f1:dc:0e:89:8d:84:82:
                    7a:56:56:c5:91:9e:7e:14:97:ec:5d:5f:a3:d0:d8:
                    45:9f:38:47:d4:b7:eb:0f:db:63:4d:0b:6b:01:bc:
                    84:08:97:22:b0:7b:6f:69:09:36:64:3c:76:3c:1c:
                    5c:9c:e5:92:cc:28:de:f0:7c:40:cf:80:9b:be:a6:
                    a2:54:91:63:56:1d:8f:8e:f2:92:fb:b5:a4:29:f2:
                    3e:31:b8:15:55:55:59:47:2d:72:96:f2:c5:8c:3b:
                    85:b8:40:aa:7b:4f:97:c8:a1:ee:4a:65:eb:f8:00:
                    e6:9b:45:7b:34:a7:ca:97:94:58:e8:0b:82:a2:4c:
                    0d:5f:53:67:f0:55:19:94:4f:79:08:28:6f:ab:93:
                    39:ae:ff:0f:d2:c9:a4:e6:bc:fe:82:b0:f3:e3:c3:
                    cf:b1:4e:fe:f1:a4:89:98:e5:49:68:53:d6:3d:7b:
                    5d:91
                Exponent: 65537 (0x10001)
        X509v3 extensions:
            X509v3 Key Usage: critical
                Certificate Sign, CRL Sign
            X509v3 Basic Constraints: critical
                CA:TRUE
            X509v3 Subject Key Identifier: 
                B7:5C:ED:B3:AE:93:93:67:0F:83:C1:46:BF:C9:65:3D:7F:70:74:41
            X509v3 Authority Key Identifier: 
                keyid:B7:5C:ED:B3:AE:93:93:67:0F:83:C1:46:BF:C9:65:3D:7F:70:74:41

    Signature Algorithm: sha1WithRSAEncryption
         8f:7f:71:fa:6c:57:93:98:47:64:1d:56:b5:01:35:13:2a:f1:
         1b:c2:b0:df:7b:0e:fb:dc:62:61:6c:14:80:d8:7b:78:05:a2:
         95:cf:83:bc:32:ae:89:0f:93:d4:41:37:87:61:f6:5c:3d:bb:
         47:04:d1:08:6f:ba:1a:20:bb:df:dd:83:fb:60:7a:a5:6e:75:
         96:3e:e6:80:54:63:69:5f:16:2d:73:fe:ac:4a:46:0d:ed:54:
         5f:81:18:45:71:5a:fa:2b:de:27:f4:25:69:e2:ef:6a:fb:a9:
         0e:33:f5:8e:fe:c1:52:67:36:75:e9:7a:d2:8d:63:31:63:f5:
         ec:67:7f:2e:e4:c7:e6:95:c2:87:00:74:f3:68:3b:f9:0b:a2:
         1f:d1:89:e9:5c:cc:46:cc:72:13:bf:d9:00:be:b5:f6:d0:08:
         43:b1:7c:99:31:40:97:f6:96:8e:ca:b0:f2:d3:57:45:3c:03:
         87:97:a8:a1:da:f4:01:99:49:c1:55:76:06:ce:74:aa:e9:92:
         4f:88:86:26:d5:b4:11:bc:18:ba:d9:ba:2e:b2:a9:ca:6b:f0:
         27:b0:fc:a1:0e:6c:01:4a:52:7c:db:67:14:f2:16:b7:e2:18:
         4b:94:c2:93:1f:26:b0:c7:8f:4d:31:53:99:c1:d6:ee:37:19:
         15:ea:2f:b6
-----BEGIN CERTIFICATE-----
MIIDxjCCAq6gAwIBAgIBATANBgkqhkiG9w0BAQUFADB0MRMwEQYKCZImiZPyLGQB
GRYDb3JnMRYwFAYKCZImiZPyLGQBGRYGc2ltcGxlMRMwEQYDVQQKDApTaW1wbGUg
SW5jMRcwFQYDVQQLDA5TaW1wbGUgUm9vdCBDQTEXMBUGA1UEAwwOU2ltcGxlIFJv
b3QgQ0EwHhcNMjAxMjA0MjEyMzM3WhcNMzAxMjA0MjEyMzM3WjB0MRMwEQYKCZIm
iZPyLGQBGRYDb3JnMRYwFAYKCZImiZPyLGQBGRYGc2ltcGxlMRMwEQYDVQQKDApT
aW1wbGUgSW5jMRcwFQYDVQQLDA5TaW1wbGUgUm9vdCBDQTEXMBUGA1UEAwwOU2lt
cGxlIFJvb3QgQ0EwggEiMA0GCSqGSIb3DQEBAQUAA4IBDwAwggEKAoIBAQDOvJlN
70NvXRfdEpXSpTwUPzRO4BFTM4biB9tXj+8euZFZYVpuHF6T6nViVdyuzAqEMGbt
QoTDzORcoVKGIlEAIRHgXLDdUy7z+kISxGe9XkaL8dwOiY2EgnpWVsWRnn4Ul+xd
X6PQ2EWfOEfUt+sP22NNC2sBvIQIlyKwe29pCTZkPHY8HFyc5ZLMKN7wfEDPgJu+
pqJUkWNWHY+O8pL7taQp8j4xuBVVVVlHLXKW8sWMO4W4QKp7T5fIoe5KZev4AOab
RXs0p8qXlFjoC4KiTA1fU2fwVRmUT3kIKG+rkzmu/w/SyaTmvP6CsPPjw8+xTv7x
pImY5UloU9Y9e12RAgMBAAGjYzBhMA4GA1UdDwEB/wQEAwIBBjAPBgNVHRMBAf8E
BTADAQH/MB0GA1UdDgQWBBS3XO2zrpOTZw+DwUa/yWU9f3B0QTAfBgNVHSMEGDAW
gBS3XO2zrpOTZw+DwUa/yWU9f3B0QTANBgkqhkiG9w0BAQUFAAOCAQEAj39x+mxX
k5hHZB1WtQE1EyrxG8Kw33sO+9xiYWwUgNh7eAWilc+DvDKuiQ+T1EE3h2H2XD27
RwTRCG+6GiC7392D+2B6pW51lj7mgFRjaV8WLXP+rEpGDe1UX4EYRXFa+iveJ/Ql
aeLvavupDjP1jv7BUmc2del60o1jMWP17Gd/LuTH5pXChwB082g7+QuiH9GJ6VzM
RsxyE7/ZAL619tAIQ7F8mTFAl/aWjsqw8tNXRTwDh5eoodr0AZlJwVV2Bs50qumS
T4iGJtW0EbwYutm6LrKpymvwJ7D8oQ5sAUpSfNtnFPIWt+IYS5TCkx8msMePTTFT
mcHW7jcZFeovtg==
-----END CERTIFICATE-----
