Certificate:
    Data:
        Version: 3 (0x2)
        Serial Number: 1 (0x1)
        Signature Algorithm: sha1WithRSAEncryption
        Issuer: DC=org, DC=simple, O=Simple Inc, OU=Simple Root CA, CN=Simple Root CA
        Validity
            Not Before: Dec  4 21:23:37 2020 GMT
            Not After : Dec  4 21:23:37 2030 GMT
        Subject: DC=org, DC=simple, O=Simple Inc, OU=Simple Root CA, CN=Simple Root CA
        Subject Public Key Info:
            Public Key Algorithm: rsaEncryption
                RSA Public-Key: (2048 bit)
                Modulus:
                    00:ce:bc:99:4d:ef:43:6f:5d:17:dd:12:95:d2:a5:
                    3c:14:3f:34:4e:e0:11:53:33:86:e2:07:db:57:8f:
                    ef:1e:b9:91:59:61:5a:6e:1c:5e:93:ea:75:62:55:
                    dc:ae:cc:0a:84:30:66:ed:42:84:c3:cc:e4:5c:a1:
                    52:86:22:51:00:21:11:e0:5c:b0:dd:53:2e:f3:fa:
                    42:12:c4:67:bd:5e:46:8b:f1:dc:0e:89:8d:84:82:
                    7a:56:56:c5:91:9e:7e:14:97:ec:5d:5f:a3:d0:d8:
                    45:9f:38:47:d4:b7:eb:0f:db:63:4d:0b:6b:01:bc:
                    84:08:97:22:b0:7b:6f:69:09:36:64:3c:76:3c:1c:
                    5c:9c:e5:92:cc:28:de:f0:7c:40:cf:80:9b:be:a6:
                    a2:54:91:63:56:1d:8f:8e:f2:92:fb:b5:a4:29:f2:
                    3e:31:b8:15:55:55:59:47:2d:72:96:f2:c5:8c:3b:
                    85:b8:40:aa:7b:4f:97:c8:a1:ee:4a:65:eb:f8:00:
                    e6:9b:45:7b:34:a7:ca:97:94:58:e8:0b:82:a2:4c:
                    0d:5f:53:67:f0:55:19:94:4f:79:08:28:6f:ab:93:
                    39:ae:ff:0f:d2:c9:a4:e6:bc:fe:82:b0:f3:e3:c3:
                    cf:b1:4e:fe:f1:a4:89:98:e5:49:68:53:d6:3d:7b:
                    5d:91
                Exponent: 65537 (0x10001)
        X509v3 extensions:
            X509v3 Key Usage: critical
                Certificate Sign, CRL Sign
            X509v3 Basic Constraints: critical
                CA:TRUE
            X509v3 Subject Key Identifier: 
                B7:5C:ED:B3:AE:93:93:67:0F:83:C1:46:BF:C9:65:3D:7F:70:74:41
            X509v3 Authority Key Identifier: 
                keyid:B7:5C:ED:B3:AE:93:93:67:0F:83:C1:46:BF:C9:65:3D:7F:70:74:41

    Signature Algorithm: sha1WithRSAEncryption
         8f:7f:71:fa:6c:57:93:98:47:64:1d:56:b5:01:35:13:2a:f1:
         1b:c2:b0:df:7b:0e:fb:dc:62:61:6c:14:80:d8:7b:78:05:a2:
         95:cf:83:bc:32:ae:89:0f:93:d4:41:37:87:61:f6:5c:3d:bb:
         47:04:d1:08:6f:ba:1a:20:bb:df:dd:83:fb:60:7a:a5:6e:75:
         96:3e:e6:80:54:63:69:5f:16:2d:73:fe:ac:4a:46:0d:ed:54:
         5f:81:18:45:71:5a:fa:2b:de:27:f4:25:69:e2:ef:6a:fb:a9:
         0e:33:f5:8e:fe:c1:52:67:36:75:e9:7a:d2:8d:63:31:63:f5:
         ec:67:7f:2e:e4:c7:e6:95:c2:87:00:74:f3:68:3b:f9:0b:a2:
         1f:d1:89:e9:5c:cc:46:cc:72:13:bf:d9:00:be:b5:f6:d0:08:
         43:b1:7c:99:31:40:97:f6:96:8e:ca:b0:f2:d3:57:45:3c:03:
         87:97:a8:a1:da:f4:01:99:49:c1:55:76:06:ce:74:aa:e9:92:
         4f:88:86:26:d5:b4:11:bc:18:ba:d9:ba:2e:b2:a9:ca:6b:f0:
         27:b0:fc:a1:0e:6c:01:4a:52:7c:db:67:14:f2:16:b7:e2:18:
         4b:94:c2:93:1f:26:b0:c7:8f:4d:31:53:99:c1:d6:ee:37:19:
         15:ea:2f:b6
-----BEGIN CERTIFICATE-----
MIIDxjCCAq6gAwIBAgIBATANBgkqhkiG9w0BAQUFADB0MRMwEQYKCZImiZPyLGQB
GRYDb3JnMRYwFAYKCZImiZPyLGQBGRYGc2ltcGxlMRMwEQYDVQQKDApTaW1wbGUg
SW5jMRcwFQYDVQQLDA5TaW1wbGUgUm9vdCBDQTEXMBUGA1UEAwwOU2ltcGxlIFJv
b3QgQ0EwHhcNMjAxMjA0MjEyMzM3WhcNMzAxMjA0MjEyMzM3WjB0MRMwEQYKCZIm
iZPyLGQBGRYDb3JnMRYwFAYKCZImiZPyLGQBGRYGc2ltcGxlMRMwEQYDVQQKDApT
aW1wbGUgSW5jMRcwFQYDVQQLDA5TaW1wbGUgUm9vdCBDQTEXMBUGA1UEAwwOU2lt
cGxlIFJvb3QgQ0EwggEiMA0GCSqGSIb3DQEBAQUAA4IBDwAwggEKAoIBAQDOvJlN
70NvXRfdEpXSpTwUPzRO4BFTM4biB9tXj+8euZFZYVpuHF6T6nViVdyuzAqEMGbt
QoTDzORcoVKGIlEAIRHgXLDdUy7z+kISxGe9XkaL8dwOiY2EgnpWVsWRnn4Ul+xd
X6PQ2EWfOEfUt+sP22NNC2sBvIQIlyKwe29pCTZkPHY8HFyc5ZLMKN7wfEDPgJu+
pqJUkWNWHY+O8pL7taQp8j4xuBVVVVlHLXKW8sWMO4W4QKp7T5fIoe5KZev4AOab
RXs0p8qXlFjoC4KiTA1fU2fwVRmUT3kIKG+rkzmu/w/SyaTmvP6CsPPjw8+xTv7x
pImY5UloU9Y9e12RAgMBAAGjYzBhMA4GA1UdDwEB/wQEAwIBBjAPBgNVHRMBAf8E
BTADAQH/MB0GA1UdDgQWBBS3XO2zrpOTZw+DwUa/yWU9f3B0QTAfBgNVHSMEGDAW
gBS3XO2zrpOTZw+DwUa/yWU9f3B0QTANBgkqhkiG9w0BAQUFAAOCAQEAj39x+mxX
k5hHZB1WtQE1EyrxG8Kw33sO+9xiYWwUgNh7eAWilc+DvDKuiQ+T1EE3h2H2XD27
RwTRCG+6GiC7392D+2B6pW51lj7mgFRjaV8WLXP+rEpGDe1UX4EYRXFa+iveJ/Ql
aeLvavupDjP1jv7BUmc2del60o1jMWP17Gd/LuTH5pXChwB082g7+QuiH9GJ6VzM
RsxyE7/ZAL619tAIQ7F8mTFAl/aWjsqw8tNXRTwDh5eoodr0AZlJwVV2Bs50qumS
T4iGJtW0EbwYutm6LrKpymvwJ7D8oQ5sAUpSfNtnFPIWt+IYS5TCkx8msMePTTFT
mcHW7jcZFeovtg==
-----END CERTIFICATE-----
